(dp0
S'216'
p1
(F40.6764
F-73.812498
tp2
sS'217'
p3
(F40.708569
F-73.970197
tp4
sS'214'
p5
(F40.583806
F-74.092204
tp6
sS'215'
p7
(F40.680859
F-73.79191
tp8
sS'224'
p9
(F40.73169
F-73.977849
tp10
sS'213'
p11
(F40.81149
F-73.847079
tp12
sS'210'
p13
(F40.597585
F-73.953616
tp14
sS'211'
p15
(F40.723301
F-74.002988
tp16
sS'165'
p17
(F40.619063
F-73.965372
tp18
sS'218'
p19
(F40.662644
F-73.768378
tp20
sS'219'
p21
(F40.662644
F-73.768378
tp22
sS'133'
p23
(F40.637642
F-73.974187
tp24
sS'132'
p25
(F40.641311
F-73.778139
tp26
sS'131'
p27
(F40.717854
F-73.774262
tp28
sS'130'
p29
(F40.702677
F-73.788969
tp30
sS'137'
p31
(F40.742329
F-73.980065
tp32
sS'136'
p33
(F40.874
F-73.902729
tp34
sS'135'
p35
(F40.738499
F-73.810685
tp36
sS'134'
p37
(F40.705695
F-73.827203
tp38
sS'212'
p39
(F40.82443
F-73.871885
tp40
sS'139'
p41
(F40.674086
F-73.744844
tp42
sS'138'
p43
(F40.776927
F-73.873966
tp44
sS'166'
p45
(F40.808956
F-73.962433
tp46
sS'24'
p47
(F40.799774
F-73.970228
tp48
sS'25'
p49
(F40.684898
F-73.98408
tp50
sS'26'
p51
(F40.632386
F-73.98748
tp52
sS'27'
p53
(F40.562138
F-73.90238
tp54
sS'20'
p55
(F40.723994
F-73.717459
tp56
sS'21'
p57
(F40.85242
F-73.885844
tp58
sS'22'
p59
(F40.615188
F-73.985758
tp60
sS'23'
p61
(F40.611073
F-73.997916
tp62
sS'160'
p63
(F40.717372
F-73.87425
tp64
sS'198'
p65
(F40.704399
F-73.901829
tp66
sS'28'
p67
(F40.712134
F-73.806318
tp68
sS'29'
p69
(F40.577664
F-73.962331
tp70
sS'161'
p71
(F40.755368
F-73.978414
tp72
sS'4'
p73
(F40.725376
F-73.980185
tp74
sS'8'
p75
(F40.778996
F-73.920793
tp76
sS'163'
p77
(F40.754931
F-73.984019
tp78
sS'119'
p79
(F40.83847
F-73.927164
tp80
sS'258'
p81
(F40.690137
F-73.856609
tp82
sS'120'
p83
(F40.843396
F-73.933243
tp84
sS'121'
p85
(F40.721251
F-73.805403
tp86
sS'122'
p87
(F40.71122
F-73.762495
tp88
sS'123'
p89
(F40.594223
F-73.958372
tp90
sS'124'
p91
(F40.657122
F-73.842999
tp92
sS'125'
p93
(F40.726583
F-74.007473
tp94
sS'126'
p95
(F40.812025
F-73.88013
tp96
sS'127'
p97
(F40.867714
F-73.921202
tp98
sS'128'
p99
(F40.871542
F-73.925695
tp100
sS'129'
p101
(F40.755682
F-73.88307
tp102
sS'167'
p103
(F40.825761
F-73.915231
tp104
sS'118'
p105
(F40.601434
F-74.103441
tp106
sS'59'
p107
(F40.840751
F-73.898213
tp108
sS'58'
p109
(F40.840779
F-73.821246
tp110
sS'55'
p111
(F40.579168
F-73.98594
tp112
sS'54'
p113
(F40.676942
F-74.006604
tp114
sS'57'
p115
(F40.737977
F-73.861433
tp116
sS'56'
p117
(F40.745195
F-73.855982
tp118
sS'51'
p119
(F40.873627
F-73.826612
tp120
sS'50'
p121
(F40.761527
F-73.998036
tp122
sS'53'
p123
(F40.78673
F-73.838272
tp124
sS'52'
p125
(F40.686769
F-73.996452
tp126
sS'259'
p127
(F40.895361
F-73.862916
tp128
sS'164'
p129
(F40.737319
F-73.996782
tp130
sS'201'
p131
(F40.579786
F-73.837224
tp132
sS'199'
p133
(F40.793128
F-73.88601
tp134
sS'179'
p135
(F40.733124
F-73.892725
tp136
sS'200'
p137
(F40.897454
F-73.901756
tp138
sS'195'
p139
(F40.67728
F-74.009447
tp140
sS'194'
p141
(F40.793227
F-73.921286
tp142
sS'197'
p143
(F40.695811
F-73.827203
tp144
sS'178'
p145
(F40.642428
F-73.973631
tp146
sS'191'
p147
(F40.715663
F-73.741902
tp148
sS'190'
p149
(F40.660204
F-73.968956
tp150
sS'193'
p151
(F40.767791
F-73.905017
tp152
sS'192'
p153
(F40.750929
F-73.940358
tp154
sS'115'
p155
(F40.618715
F-74.093475
tp156
sS'114'
p157
(F40.733572
F-74.002742
tp158
sS'88'
p159
(F40.70749
F-74.01128
tp160
sS'89'
p161
(F40.64092
F-73.96243
tp162
sS'111'
p163
(F40.659017
F-73.995692
tp164
sS'110'
p165
(F40.55021
F-74.12693
tp166
sS'113'
p167
(F40.733572
F-74.002742
tp168
sS'112'
p169
(F40.724545
F-73.94186
tp170
sS'82'
p171
(F40.73797
F-73.88013
tp172
sS'83'
p173
(F40.72316
F-73.91264
tp174
sS'80'
p175
(F40.71588
F-73.93304
tp176
sS'81'
p177
(F40.88332
F-73.8272
tp178
sS'86'
p179
(F40.59989
F-73.74484
tp180
sS'87'
p181
(F40.707491
F-74.011276
tp182
sS'84'
p183
(F40.5505
F-74.17508
tp184
sS'85'
p185
(F40.64963
F-73.95289
tp186
sS'251'
p187
(F40.616296
F-74.138677
tp188
sS'207'
p189
(F40.728224
F-73.794852
tp190
sS'256'
p191
(F40.707994
F-73.951733
tp192
sS'206'
p193
(F40.642702
F-74.079947
tp194
sS'226'
p195
(F40.743276
F-73.919632
tp196
sS'257'
p197
(F40.653935
F-73.975657
tp198
sS'3'
p199
(F40.862753
F-73.843444
tp200
sS'177'
p201
(F40.618015
F-73.396798
tp202
sS'254'
p203
(F40.880391
F-73.8669
tp204
sS'7'
p205
(F40.764198
F-73.923734
tp206
sS'247'
p207
(F40.831676
F-73.922755
tp208
sS'255'
p209
(F40.719402
F-73.964
tp210
sS'225'
p211
(F40.688228
F-73.933098
tp212
sS'245'
p213
(F40.62703
F-74.109314
tp214
sS'244'
p215
(F40.841708
F-73.939355
tp216
sS'108'
p217
(F40.59102
F-73.97713
tp218
sS'109'
p219
(F40.55433
F-74.159629
tp220
sS'241'
p221
(F40.884307
F-73.893555
tp222
sS'240'
p223
(F40.897935
F-73.885951
tp224
sS'243'
p225
(F40.841708
F-73.939355
tp226
sS'242'
p227
(F40.845156
F-73.866506
tp228
sS'102'
p229
(F40.69899
F-73.88044
tp230
sS'103'
p231
(F40.69947
F-74.03956
tp232
sS'100'
p233
(F40.75471
F-73.99163
tp234
sS'101'
p235
(F40.74715
F-73.71182
tp236
sS'106'
p237
(F40.67334
F-73.99035
tp238
sS'107'
p239
(F40.9255
F-73.79687
tp240
sS'104'
p241
(F40.69947
F-74.03956
tp242
sS'105'
p243
(F40.69947
F-74.03956
tp244
sS'39'
p245
(F40.639934
F-73.907252
tp246
sS'38'
p247
(F40.692219
F-73.732271
tp248
sS'33'
p249
(F40.69593
F-73.993607
tp250
sS'32'
p251
(F40.850719
F-73.862147
tp252
sS'31'
p253
(F40.860508
F-73.874159
tp254
sS'30'
p255
(F40.616421
F-73.822314
tp256
sS'37'
p257
(F40.687876
F-73.913354
tp258
sS'36'
p259
(F40.701151
F-73.922108
tp260
sS'35'
p261
(F40.662984
F-73.90944
tp262
sS'34'
p263
(F40.699101
F-73.968984
tp264
sS'246'
p265
(F40.729309
F-74.010765
tp266
sS'252'
p267
(F40.792045
F-73.809557
tp268
sS'205'
p269
(F40.689409
F-73.765437
tp270
sS'223'
p271
(F40.774546
F-73.903748
tp272
sS'176'
p273
(F40.558475
F-74.115187
tp274
sS'60'
p275
(F40.839222
F-73.888619
tp276
sS'61'
p277
(F40.675515
F-73.939022
tp278
sS'62'
p279
(F40.665811
F-73.942654
tp280
sS'63'
p281
(F40.683526
F-73.880318
tp282
sS'64'
p283
(F40.768711
F-73.747099
tp284
sS'65'
p285
(F40.693052
F-73.984412
tp286
sS'66'
p287
(F40.703621
F-73.982241
tp288
sS'67'
p289
(F40.618399
F-74.014823
tp290
sS'68'
p291
(F40.744921
F-73.995238
tp292
sS'69'
p293
(F40.824452
F-73.920912
tp294
sS'175'
p295
(F40.740858
F-73.758241
tp296
sS'174'
p297
(F40.877146
F-73.87866
tp298
sS'173'
p299
(F40.75027
F-73.862489
tp300
sS'172'
p301
(F40.57149
F-74.093163
tp302
sS'171'
p303
(F40.766525
F-73.803675
tp304
sS'170'
p305
(F40.747879
F-73.975657
tp306
sS'203'
p307
(F40.658407
F-73.73896
tp308
sS'222'
p309
(F40.751603
F-74.006519
tp310
sS'181'
p311
(F40.668104
F-73.980582
tp312
sS'253'
p313
(F40.760691
F-73.840436
tp314
sS'248'
p315
(F40.832239
F-73.880997
tp316
sS'182'
p317
(F40.838252
F-73.856609
tp318
sS'183'
p319
(F40.849671
F-73.833084
tp320
sS'180'
p321
(F40.733124
F-73.892725
tp322
sS'2'
p323
(F40.649683
F-73.874434
tp324
sS'162'
p325
(F40.754037
F-73.966841
tp326
sS'187'
p327
(F40.635491
F-74.125464
tp328
sS'184'
p329
(F40.860466
F-73.802252
tp330
sS'6'
p331
(F40.608796
F-74.061268
tp332
sS'220'
p333
(F40.874
F-73.902729
tp334
sS'186'
p335
(F40.742799
F-73.98669
tp336
sS'188'
p337
(F40.659045
F-73.950677
tp338
sS'189'
p339
(F40.67742
F-73.966841
tp340
sS'202'
p341
(F40.760503
F-73.950993
tp342
sS'196'
p343
(F40.725572
F-73.862489
tp344
sS'221'
p345
(F40.628878
F-74.078479
tp346
sS'185'
p347
(F40.855328
F-73.863959
tp348
sS'99'
p349
(F40.57737
F-74.18616
tp350
sS'98'
p351
(F40.73352
F-73.78014
tp352
sS'168'
p353
(F40.80149
F-73.909581
tp354
sS'169'
p355
(F40.848886
F-73.905119
tp356
sS'229'
p357
(F40.75802
F-73.960167
tp358
sS'228'
p359
(F40.645532
F-74.012385
tp360
sS'91'
p361
(F40.62684
F-73.93304
tp362
sS'90'
p363
(F40.74106
F-73.9897
tp364
sS'93'
p365
(F40.73971
F-73.84078
tp366
sS'92'
p367
(F40.76675
F-73.83308
tp368
sS'95'
p369
(F40.71811
F-73.84485
tp370
sS'94'
p371
(F40.86147
F-73.89054
tp372
sS'97'
p373
(F40.69206
F-73.97419
tp374
sS'96'
p375
(F40.68341
F-73.89094
tp376
sS'11'
p377
(F40.602183
F-74.003671
tp378
sS'10'
p379
(F40.681455
F-73.794473
tp380
sS'13'
p381
(F40.710092
F-74.01639
tp382
sS'12'
p383
(F40.703164
F-74.016985
tp384
sS'15'
p385
(F40.782889
F-73.7801
tp386
sS'14'
p387
(F40.626032
F-74.031816
tp388
sS'17'
p389
(F41.193081
F-73.643604
tp390
sS'16'
p391
(F40.7586
F-73.766467
tp392
sS'19'
p393
(F40.870614
F-73.883822
tp394
sS'18'
p395
(F40.870163
F-73.881057
tp396
sS'117'
p397
(F40.589848
F-73.805417
tp398
sS'250'
p399
(F40.833546
F-73.857735
tp400
sS'116'
p401
(F40.82596
F-73.949608
tp402
sS'204'
p403
(F40.544379
F-74.195893
tp404
sS'151'
p405
(F40.800521
F-73.961572
tp406
sS'150'
p407
(F40.578158
F-73.938921
tp408
sS'153'
p409
(F40.876117
F-73.910263
tp410
sS'152'
p411
(F40.816944
F-73.955833
tp412
sS'155'
p413
(F40.610089
F-73.910998
tp414
sS'154'
p415
(F40.58963
F-73.899096
tp416
sS'157'
p417
(F40.729402
F-73.906588
tp418
sS'156'
p419
(F40.633629
F-74.156292
tp420
sS'159'
p421
(F40.820972
F-73.916877
tp422
sS'158'
p423
(F40.735781
F-74.003571
tp424
sS'238'
p425
(F40.787011
F-73.975368
tp426
sS'239'
p427
(F40.787011
F-73.975368
tp428
sS'234'
p429
(F40.735199
F-73.990121
tp430
sS'235'
p431
(F40.849733
F-73.91669
tp432
sS'236'
p433
(F40.773565
F-73.956555
tp434
sS'237'
p435
(F40.773565
F-73.956555
tp436
sS'230'
p437
(F40.755739
F-73.987376
tp438
sS'231'
p439
(F40.706849
F-73.990578
tp440
sS'232'
p441
(F40.715781
F-73.989158
tp442
sS'233'
p443
(F40.754037
F-73.966841
tp444
sS'48'
p445
(F40.765956
F-73.987074
tp446
sS'49'
p447
(F40.689525
F-73.963533
tp448
sS'46'
p449
(F40.8468
F-73.7875
tp450
sS'47'
p451
(F40.83993
F-73.903867
tp452
sS'44'
p453
(F40.508395
F-74.236112
tp454
sS'45'
p455
(F40.715666
F-73.996316
tp456
sS'42'
p457
(F40.816213
F-73.946274
tp458
sS'43'
p459
(F40.780908
F-73.95888
tp460
sS'40'
p461
(F40.679537
F-73.999195
tp462
sS'41'
p463
(F40.811113
F-73.947059
tp464
sS'1'
p465
(F40.689519
F-74.174441
tp466
sS'5'
p467
(F40.55651
F-74.173771
tp468
sS'9'
p469
(F40.757801
F-73.783761
tp470
sS'146'
p471
(F40.728224
F-73.794852
tp472
sS'147'
p473
(F40.824844
F-73.891588
tp474
sS'144'
p475
(F40.719141
F-73.997327
tp476
sS'145'
p477
(F40.748034
F-73.950677
tp478
sS'142'
p479
(F40.773828
F-73.984472
tp480
sS'143'
p481
(F40.773828
F-73.984472
tp482
sS'140'
p483
(F40.767591
F-73.967557
tp484
sS'141'
p485
(F40.767591
F-73.967557
tp486
sS'209'
p487
(F40.710322
F-74.00255
tp488
sS'208'
p489
(F40.822587
F-73.811155
tp490
sS'148'
p491
(F40.715033
F-73.984272
tp492
sS'149'
p493
(F40.605625
F-73.949208
tp494
sS'77'
p495
(F40.6574
F-73.88966
tp496
sS'76'
p497
(F40.656933
F-73.878895
tp498
sS'75'
p499
(F40.788862
F-73.942985
tp500
sS'74'
p501
(F40.804527
F-73.936927
tp502
sS'73'
p503
(F40.753886
F-73.807936
tp504
sS'72'
p505
(F40.694226
F-73.994662
tp506
sS'71'
p507
(F40.637586
F-73.947013
tp508
sS'70'
p509
(F40.77391
F-73.872059
tp510
sS'79'
p511
(F40.72648
F-73.98153
tp512
sS'78'
p513
(F40.84474
F-73.89336
tp514
sS'263'
p515
(F40.776223
F-73.949208
tp516
sS'249'
p517
(F40.735781
F-74.003571
tp518
sS'262'
p519
(F40.776223
F-73.949208
tp520
sS'227'
p521
(F40.645532
F-74.012385
tp522
sS'261'
p523
(F40.711801
F-74.01312
tp524
sS'260'
p525
(F40.751212
F-73.903649
tp526
s.